target datalayout = "e-m:e-p270:32:32-p271:32:32-p272:64:64-i64:64-i128:128-f80:128-n8:16:32:64-S128"
target triple = "x86_64-pc-linux-gnu"

; Function Attrs: inlinehint mustprogress nounwind uwtable
define internal noundef zeroext i1 @_ZN6google8protobufL16IsValidFloatCharEc(i8 noundef signext %0) #8 {
  %2 = alloca i8, align 1
  store i8 %0, ptr %2, align 1, !tbaa !10
  %3 = load i8, ptr %2, align 1, !tbaa !10
  %4 = sext i8 %3 to i32
  %5 = icmp sle i32 48, %4
  br i1 %5, label %6, label %10

6:                                                ; preds = %1
  %7 = load i8, ptr %2, align 1, !tbaa !10
  %8 = sext i8 %7 to i32
  %9 = icmp sle i32 %8, 57
  br i1 %9, label %26, label %10

10:                                               ; preds = %6, %1
  %11 = load i8, ptr %2, align 1, !tbaa !10
  %12 = sext i8 %11 to i32
  %13 = icmp eq i32 %12, 101
  br i1 %13, label %26, label %14

14:                                               ; preds = %10
  %15 = load i8, ptr %2, align 1, !tbaa !10
  %16 = sext i8 %15 to i32
  %17 = icmp eq i32 %16, 69
  br i1 %17, label %26, label %18

18:                                               ; preds = %14
  %19 = load i8, ptr %2, align 1, !tbaa !10
  %20 = sext i8 %19 to i32
  %21 = icmp eq i32 %20, 43
  br i1 %21, label %26, label %22

22:                                               ; preds = %18
  %23 = load i8, ptr %2, align 1, !tbaa !10
  %24 = sext i8 %23 to i32
  %25 = icmp eq i32 %24, 45
  br label %26

26:                                               ; preds = %22, %18, %14, %10, %6
  %27 = phi i1 [ true, %18 ], [ true, %14 ], [ true, %10 ], [ true, %6 ], [ %25, %22 ]
  ret i1 %27
}

; Function Attrs: mustprogress uwtable
define void @_ZN6google8protobuf15DelocalizeRadixEPc(ptr noundef %0) #4 {
  %2 = alloca ptr, align 8
  %3 = alloca ptr, align 8
  store ptr %0, ptr %2, align 8, !tbaa !8
  %4 = load ptr, ptr %2, align 8, !tbaa !8
  %5 = call noundef ptr @strchr(ptr noundef %4, i32 noundef 46) #19
  %6 = icmp ne ptr %5, null
  br i1 %6, label %7, label %8

7:                                                ; preds = %1
  br label %56

8:                                                ; preds = %1
  br label %9

9:                                                ; preds = %13, %8
  %10 = load ptr, ptr %2, align 8, !tbaa !8
  %11 = load i8, ptr %10, align 1, !tbaa !10
  %12 = call noundef zeroext i1 @_ZN6google8protobufL16IsValidFloatCharEc(i8 noundef signext %11)
  br i1 %12, label %13, label %16

13:                                               ; preds = %9
  %14 = load ptr, ptr %2, align 8, !tbaa !8
  %15 = getelementptr inbounds nuw i8, ptr %14, i32 1
  store ptr %15, ptr %2, align 8, !tbaa !8
  br label %9, !llvm.loop !81

16:                                               ; preds = %9
  %17 = load ptr, ptr %2, align 8, !tbaa !8
  %18 = load i8, ptr %17, align 1, !tbaa !10
  %19 = sext i8 %18 to i32
  %20 = icmp eq i32 %19, 0
  br i1 %20, label %21, label %22

21:                                               ; preds = %16
  br label %56

22:                                               ; preds = %16
  %23 = load ptr, ptr %2, align 8, !tbaa !8
  store i8 46, ptr %23, align 1, !tbaa !10
  %24 = load ptr, ptr %2, align 8, !tbaa !8
  %25 = getelementptr inbounds nuw i8, ptr %24, i32 1
  store ptr %25, ptr %2, align 8, !tbaa !8
  %26 = load ptr, ptr %2, align 8, !tbaa !8
  %27 = load i8, ptr %26, align 1, !tbaa !10
  %28 = call noundef zeroext i1 @_ZN6google8protobufL16IsValidFloatCharEc(i8 noundef signext %27)
  br i1 %28, label %56, label %29

29:                                               ; preds = %22
  %30 = load ptr, ptr %2, align 8, !tbaa !8
  %31 = load i8, ptr %30, align 1, !tbaa !10
  %32 = sext i8 %31 to i32
  %33 = icmp ne i32 %32, 0
  br i1 %33, label %34, label %56

34:                                               ; preds = %29
  call void @llvm.lifetime.start.p0(i64 8, ptr %3) #3
  %35 = load ptr, ptr %2, align 8, !tbaa !8
  store ptr %35, ptr %3, align 8, !tbaa !8
  br label %36

36:                                               ; preds = %48, %34
  %37 = load ptr, ptr %2, align 8, !tbaa !8
  %38 = getelementptr inbounds nuw i8, ptr %37, i32 1
  store ptr %38, ptr %2, align 8, !tbaa !8
  br label %39

39:                                               ; preds = %36
  %40 = load ptr, ptr %2, align 8, !tbaa !8
  %41 = load i8, ptr %40, align 1, !tbaa !10
  %42 = call noundef zeroext i1 @_ZN6google8protobufL16IsValidFloatCharEc(i8 noundef signext %41)
  br i1 %42, label %48, label %43

43:                                               ; preds = %39
  %44 = load ptr, ptr %2, align 8, !tbaa !8
  %45 = load i8, ptr %44, align 1, !tbaa !10
  %46 = sext i8 %45 to i32
  %47 = icmp ne i32 %46, 0
  br label %48

48:                                               ; preds = %43, %39
  %49 = phi i1 [ false, %39 ], [ %47, %43 ]
  br i1 %49, label %36, label %50, !llvm.loop !82

50:                                               ; preds = %48
  %51 = load ptr, ptr %3, align 8, !tbaa !8
  %52 = load ptr, ptr %2, align 8, !tbaa !8
  %53 = load ptr, ptr %2, align 8, !tbaa !8
  %54 = call i64 @strlen(ptr noundef %53) #19
  %55 = add i64 %54, 1
  call void @llvm.memmove.p0.p0.i64(ptr align 1 %51, ptr align 1 %52, i64 %55, i1 false)
  call void @llvm.lifetime.end.p0(i64 8, ptr %3) #3
  br label %56

56:                                               ; preds = %7, %21, %50, %29, %22
  ret void
}