; Function Attrs: mustprogress nofree nounwind memory(argmem: readwrite) uwtable
define void @_ZN6google8protobuf15DelocalizeRadixEPc(ptr noundef %0) local_unnamed_addr #19 {
  %2 = tail call noundef ptr @strchr(ptr noundef nonnull dereferenceable(1) %0, i32 noundef 46) #29
  %.not = icmp eq ptr %2, null
  br i1 %.not, label %.preheader23, label %_ZN6google8protobufL16IsValidFloatCharEc.exit19.thread

.preheader23:                                     ; preds = %1, %5
  %.0 = phi ptr [ %6, %5 ], [ %0, %1 ]
  %3 = load i8, ptr %.0, align 1, !tbaa !11
  %4 = add i8 %3, -48
  %or.cond.i = icmp ult i8 %4, 10
  br i1 %or.cond.i, label %5, label %switch.early.test.i

switch.early.test.i:                              ; preds = %.preheader23
  switch i8 %3, label %7 [
    i8 101, label %5
    i8 69, label %5
    i8 43, label %5
    i8 45, label %5
    i8 0, label %_ZN6google8protobufL16IsValidFloatCharEc.exit19.thread
  ]

5:                                                ; preds = %switch.early.test.i, %switch.early.test.i, %switch.early.test.i, %switch.early.test.i, %.preheader23
  %6 = getelementptr inbounds nuw i8, ptr %.0, i64 1
  br label %.preheader23, !llvm.loop !76

7:                                                ; preds = %switch.early.test.i
  store i8 46, ptr %.0, align 1, !tbaa !11
  %8 = getelementptr inbounds nuw i8, ptr %.0, i64 1
  %9 = load i8, ptr %8, align 1, !tbaa !11
  %10 = add i8 %9, -48
  %or.cond.i17 = icmp ult i8 %10, 10
  br i1 %or.cond.i17, label %_ZN6google8protobufL16IsValidFloatCharEc.exit19.thread, label %switch.early.test.i18

switch.early.test.i18:                            ; preds = %7
  switch i8 %9, label %.preheader [
    i8 101, label %_ZN6google8protobufL16IsValidFloatCharEc.exit19.thread
    i8 69, label %_ZN6google8protobufL16IsValidFloatCharEc.exit19.thread
    i8 43, label %_ZN6google8protobufL16IsValidFloatCharEc.exit19.thread
    i8 45, label %_ZN6google8protobufL16IsValidFloatCharEc.exit19.thread
    i8 0, label %_ZN6google8protobufL16IsValidFloatCharEc.exit19.thread
  ]

.preheader:                                       ; preds = %switch.early.test.i18, %switch.early.test.i21
  %.1 = phi ptr [ %11, %switch.early.test.i21 ], [ %8, %switch.early.test.i18 ]
  %11 = getelementptr inbounds nuw i8, ptr %.1, i64 1
  %12 = load i8, ptr %11, align 1, !tbaa !11
  %13 = add i8 %12, -48
  %or.cond.i20 = icmp ult i8 %13, 10
  br i1 %or.cond.i20, label %.critedge, label %switch.early.test.i21

switch.early.test.i21:                            ; preds = %.preheader
  switch i8 %12, label %.preheader [
    i8 101, label %.critedge
    i8 69, label %.critedge
    i8 43, label %.critedge
    i8 45, label %.critedge
    i8 0, label %.critedge
  ]

.critedge:                                        ; preds = %switch.early.test.i21, %switch.early.test.i21, %switch.early.test.i21, %switch.early.test.i21, %switch.early.test.i21, %.preheader
  %14 = tail call i64 @strlen(ptr noundef nonnull dereferenceable(1) %11) #29
  %15 = add i64 %14, 1
  tail call void @llvm.memmove.p0.p0.i64(ptr nonnull align 1 %8, ptr nonnull align 1 %11, i64 %15, i1 false)
  br label %_ZN6google8protobufL16IsValidFloatCharEc.exit19.thread

_ZN6google8protobufL16IsValidFloatCharEc.exit19.thread: ; preds = %switch.early.test.i, %switch.early.test.i18, %switch.early.test.i18, %switch.early.test.i18, %switch.early.test.i18, %switch.early.test.i18, %7, %1, %.critedge
  ret void
}